target datalayout = "e-m:e-p270:32:32-p271:32:32-p272:64:64-i64:64-i128:128-f80:128-n8:16:32:64-S128"
target triple = "x86_64-pc-linux-gnu"

%union.pthread_mutex_t = type { %struct.__pthread_mutex_s }
%struct.__pthread_mutex_s = type { i32, i32, i32, i32, i32, i16, i16, %struct.__pthread_internal_list }
%struct.__pthread_internal_list = type { ptr, ptr }
%struct.slurm_acct_gather_interconnect_ops = type { ptr, ptr, ptr, ptr, ptr }

@g_context_lock = internal global %union.pthread_mutex_t zeroinitializer, align 8
@.str.1 = private unnamed_addr constant [29 x i8] c"%s: pthread_mutex_lock(): %m\00", align 1
@g_context_num = internal global i32 -1, align 4
@ops = internal global ptr null, align 8
@g_context = internal global ptr null, align 8
@.str.7 = private unnamed_addr constant [31 x i8] c"%s: pthread_mutex_unlock(): %m\00", align 1
@__func__.acct_gather_interconnect_g_conf_options = private unnamed_addr constant [40 x i8] c"acct_gather_interconnect_g_conf_options\00", align 1

; Function Attrs: nounwind uwtable
define dso_local i32 @acct_gather_interconnect_g_conf_options(ptr noundef %0, ptr noundef %1) #0 {
  %3 = alloca i32, align 4
  %4 = alloca ptr, align 8
  %5 = alloca ptr, align 8
  %6 = alloca i32, align 4
  %7 = alloca i32, align 4
  %8 = alloca i32, align 4
  %9 = alloca i32, align 4
  store ptr %0, ptr %4, align 8
  store ptr %1, ptr %5, align 8
  call void @llvm.lifetime.start.p0(i64 4, ptr %6) #6
  %10 = load i32, ptr @g_context_num, align 4
  %11 = icmp ne i32 %10, 0
  br i1 %11, label %13, label %12

12:                                               ; preds = %2
  store i32 0, ptr %3, align 4
  store i32 1, ptr %7, align 4
  br label %59

13:                                               ; preds = %2
  br label %14

14:                                               ; preds = %13
  call void @llvm.lifetime.start.p0(i64 4, ptr %8) #6
  %15 = call i32 @pthread_mutex_lock(ptr noundef @g_context_lock) #6
  store i32 %15, ptr %8, align 4
  %16 = load i32, ptr %8, align 4
  %17 = icmp ne i32 %16, 0
  br i1 %17, label %18, label %21

18:                                               ; preds = %14
  %19 = load i32, ptr %8, align 4
  %20 = call ptr @__errno_location() #7
  store i32 %19, ptr %20, align 4
  call void (ptr, ...) @fatal_abort(ptr noundef @.str.1, ptr noundef @__func__.acct_gather_interconnect_g_conf_options) #8
  unreachable

21:                                               ; preds = %14
  call void @llvm.lifetime.end.p0(i64 4, ptr %8) #6
  br label %22

22:                                               ; preds = %21
  br label %23

23:                                               ; preds = %22
  store i32 0, ptr %6, align 4
  br label %24

24:                                               ; preds = %45, %23
  %25 = load i32, ptr %6, align 4
  %26 = load i32, ptr @g_context_num, align 4
  %27 = icmp slt i32 %25, %26
  br i1 %27, label %28, label %48

28:                                               ; preds = %24
  %29 = load ptr, ptr @g_context, align 8
  %30 = load i32, ptr %6, align 4
  %31 = sext i32 %30 to i64
  %32 = getelementptr inbounds ptr, ptr %29, i64 %31
  %33 = load ptr, ptr %32, align 8
  %34 = icmp ne ptr %33, null
  br i1 %34, label %36, label %35

35:                                               ; preds = %28
  br label %45

36:                                               ; preds = %28
  %37 = load ptr, ptr @ops, align 8
  %38 = load i32, ptr %6, align 4
  %39 = sext i32 %38 to i64
  %40 = getelementptr inbounds %struct.slurm_acct_gather_interconnect_ops, ptr %37, i64 %39
  %41 = getelementptr inbounds nuw %struct.slurm_acct_gather_interconnect_ops, ptr %40, i32 0, i32 1
  %42 = load ptr, ptr %41, align 8
  %43 = load ptr, ptr %4, align 8
  %44 = load ptr, ptr %5, align 8
  call void %42(ptr noundef %43, ptr noundef %44)
  br label %45

45:                                               ; preds = %36, %35
  %46 = load i32, ptr %6, align 4
  %47 = add nsw i32 %46, 1
  store i32 %47, ptr %6, align 4
  br label %24, !llvm.loop !16

48:                                               ; preds = %24
  br label %49

49:                                               ; preds = %48
  call void @llvm.lifetime.start.p0(i64 4, ptr %9) #6
  %50 = call i32 @pthread_mutex_unlock(ptr noundef @g_context_lock) #6
  store i32 %50, ptr %9, align 4
  %51 = load i32, ptr %9, align 4
  %52 = icmp ne i32 %51, 0
  br i1 %52, label %53, label %56

53:                                               ; preds = %49
  %54 = load i32, ptr %9, align 4
  %55 = call ptr @__errno_location() #7
  store i32 %54, ptr %55, align 4
  call void (ptr, ...) @fatal_abort(ptr noundef @.str.7, ptr noundef @__func__.acct_gather_interconnect_g_conf_options) #8
  unreachable

56:                                               ; preds = %49
  call void @llvm.lifetime.end.p0(i64 4, ptr %9) #6
  br label %57

57:                                               ; preds = %56
  br label %58

58:                                               ; preds = %57
  store i32 0, ptr %3, align 4
  store i32 1, ptr %7, align 4
  br label %59

59:                                               ; preds = %58, %12
  call void @llvm.lifetime.end.p0(i64 4, ptr %6) #6
  %60 = load i32, ptr %3, align 4
  ret i32 %60
}