; Function Attrs: nounwind uwtable
define dso_local noundef i32 @acct_gather_interconnect_g_conf_options(ptr noundef %0, ptr noundef %1) local_unnamed_addr #0 {
  %3 = load i32, ptr @g_context_num, align 4
  %.not = icmp eq i32 %3, 0
  br i1 %.not, label %26, label %4

4:                                                ; preds = %2
  %5 = tail call i32 @pthread_mutex_lock(ptr noundef nonnull @g_context_lock) #7
  %.not12 = icmp eq i32 %5, 0
  br i1 %.not12, label %.preheader, label %8

.preheader:                                       ; preds = %4
  %6 = load i32, ptr @g_context_num, align 4
  %7 = icmp sgt i32 %6, 0
  br i1 %7, label %.lr.ph.preheader, label %._crit_edge

.lr.ph.preheader:                                 ; preds = %.preheader
  %.pre17 = load ptr, ptr @g_context, align 8
  br label %.lr.ph

8:                                                ; preds = %4
  %9 = tail call ptr @__errno_location() #8
  store i32 %5, ptr %9, align 4
  tail call void (ptr, ...) @fatal_abort(ptr noundef nonnull @.str.1, ptr noundef nonnull @__func__.acct_gather_interconnect_g_conf_options) #9
  unreachable

.lr.ph:                                           ; preds = %.lr.ph.preheader, %18
  %10 = phi i32 [ %6, %.lr.ph.preheader ], [ %19, %18 ]
  %11 = phi ptr [ %.pre17, %.lr.ph.preheader ], [ %20, %18 ]
  %indvars.iv = phi i64 [ 0, %.lr.ph.preheader ], [ %indvars.iv.next, %18 ]
  %12 = getelementptr inbounds nuw ptr, ptr %11, i64 %indvars.iv
  %13 = load ptr, ptr %12, align 8
  %.not14 = icmp eq ptr %13, null
  br i1 %.not14, label %18, label %14

14:                                               ; preds = %.lr.ph
  %15 = load ptr, ptr @ops, align 8
  %16 = getelementptr inbounds nuw %struct.slurm_acct_gather_interconnect_ops, ptr %15, i64 %indvars.iv, i32 1
  %17 = load ptr, ptr %16, align 8
  tail call void %17(ptr noundef %0, ptr noundef %1) #7
  %.pre = load ptr, ptr @g_context, align 8
  %.pre18 = load i32, ptr @g_context_num, align 4
  br label %18

18:                                               ; preds = %.lr.ph, %14
  %19 = phi i32 [ %10, %.lr.ph ], [ %.pre18, %14 ]
  %20 = phi ptr [ %11, %.lr.ph ], [ %.pre, %14 ]
  %indvars.iv.next = add nuw nsw i64 %indvars.iv, 1
  %21 = sext i32 %19 to i64
  %22 = icmp slt i64 %indvars.iv.next, %21
  br i1 %22, label %.lr.ph, label %._crit_edge, !llvm.loop !14

._crit_edge:                                      ; preds = %18, %.preheader
  %23 = tail call i32 @pthread_mutex_unlock(ptr noundef nonnull @g_context_lock) #7
  %.not13 = icmp eq i32 %23, 0
  br i1 %.not13, label %26, label %24

24:                                               ; preds = %._crit_edge
  %25 = tail call ptr @__errno_location() #8
  store i32 %23, ptr %25, align 4
  tail call void (ptr, ...) @fatal_abort(ptr noundef nonnull @.str.7, ptr noundef nonnull @__func__.acct_gather_interconnect_g_conf_options) #9
  unreachable

26:                                               ; preds = %._crit_edge, %2
  ret i32 0
}